target datalayout = "e-m:e-p270:32:32-p271:32:32-p272:64:64-i64:64-i128:128-f80:128-n8:16:32:64-S128"
target triple = "x86_64-pc-linux-gnu"

; Function Attrs: mustprogress nounwind uwtable
define noundef double @_ZNK6casadi9Smoothing4pertExd(ptr noundef nonnull align 8 dereferenceable(1392) %0, i64 noundef %1, double noundef %2) unnamed_addr #5 align 2 {
  %4 = alloca ptr, align 8
  %5 = alloca i64, align 8
  %6 = alloca double, align 8
  %7 = alloca i64, align 8
  %8 = alloca i64, align 8
  store ptr %0, ptr %4, align 8
  store i64 %1, ptr %5, align 8
  store double %2, ptr %6, align 8
  %9 = load i64, ptr %5, align 8
  %10 = sdiv i64 %9, 2
  %11 = mul nsw i64 2, %10
  %12 = sub nsw i64 %11, 1
  store i64 %12, ptr %7, align 8
  %13 = load i64, ptr %5, align 8
  %14 = srem i64 %13, 2
  %15 = add nsw i64 %14, 1
  store i64 %15, ptr %8, align 8
  %16 = load i64, ptr %8, align 8
  %17 = load i64, ptr %7, align 8
  %18 = mul nsw i64 %16, %17
  %19 = sitofp i64 %18 to double
  %20 = load double, ptr %6, align 8
  %21 = fmul double %19, %20
  ret double %21
}