; Function Attrs: mustprogress nofree norecurse nosync nounwind willreturn memory(none) uwtable
define noundef double @_ZNK6casadi9Smoothing4pertExd(ptr nocapture nonnull readnone align 8 %0, i64 noundef %1, double noundef %2) unnamed_addr #4 align 2 {
  %4 = sdiv i64 %1, 2
  %5 = shl nsw i64 %4, 1
  %6 = add nsw i64 %5, -1
  %7 = srem i64 %1, 2
  %8 = add nsw i64 %7, 1
  %9 = mul nsw i64 %6, %8
  %10 = sitofp i64 %9 to double
  %11 = fmul double %10, %2
  ret double %11
}